target datalayout = "e-m:e-p270:32:32-p271:32:32-p272:64:64-i64:64-i128:128-f80:128-n8:16:32:64-S128"
target triple = "x86_64-pc-linux-gnu"

%struct.strvec = type { ptr, i64, i64 }
%struct.strbuf = type { i64, i64, ptr }
%struct.child_process = type { %struct.strvec, %struct.strvec, i32, i32, i64, ptr, ptr, i32, i32, i32, ptr, i16, ptr }
%struct.tempfile = type { %struct.volatile_list_head, i32, ptr, i32, %struct.strbuf, ptr }
%struct.volatile_list_head = type { ptr, ptr }

@the_repository = external global ptr, align 8
@.str.115 = private unnamed_addr constant [7 x i8] c"hourly\00", align 1
@.str.116 = private unnamed_addr constant [6 x i8] c"daily\00", align 1
@.str.117 = private unnamed_addr constant [7 x i8] c"weekly\00", align 1
@.str.118 = private unnamed_addr constant [13 x i8] c"builtin/gc.c\00", align 1
@.str.138 = private unnamed_addr constant [2 x i8] c"w\00", align 1
@.str.177 = private unnamed_addr constant [9 x i8] c"schtasks\00", align 1
@.str.181 = private unnamed_addr constant [25 x i8] c"GIT_TEST_MAINT_SCHEDULER\00", align 1
@get_extra_config_parameters.result = internal global ptr null, align 8
@__const.get_extra_config_parameters.builder = private unnamed_addr constant %struct.strbuf { i64 0, i64 0, ptr @strbuf_slopbuf }, align 8
@extraconfig = internal global [3 x ptr] [ptr @.str.207, ptr @.str.208, ptr null], align 16
@.str.206 = private unnamed_addr constant [7 x i8] c"-c %s \00", align 1
@.str.222 = private unnamed_addr constant [20 x i8] c"invalid schedule %d\00", align 1
@__const.schtasks_schedule_task.tfilename = private unnamed_addr constant %struct.strbuf { i64 0, i64 0, ptr @strbuf_slopbuf }, align 8
@.str.247 = private unnamed_addr constant [22 x i8] c"%s/schedule_%s_XXXXXX\00", align 1
@.str.248 = private unnamed_addr constant [31 x i8] c"failed to create temp xml file\00", align 1
@.str.249 = private unnamed_addr constant [136 x i8] c"<?xml version=\221.0\22 ?>\0A<Task version=\221.4\22 xmlns=\22http://schemas.microsoft.com/windows/2004/02/mit/task\22>\0A<Triggers>\0A<CalendarTrigger>\0A\00", align 1
@.str.252 = private unnamed_addr constant [184 x i8] c"<StartBoundary>2020-01-01T00:%02d:00</StartBoundary>\0A<Enabled>true</Enabled>\0A<ScheduleByWeek>\0A<DaysOfWeek>\0A<Sunday />\0A</DaysOfWeek>\0A<WeeksInterval>1</WeeksInterval>\0A</ScheduleByWeek>\0A\00", align 1
@.str.254 = private unnamed_addr constant [8 x i8] c"/create\00", align 1
@.str.255 = private unnamed_addr constant [4 x i8] c"/tn\00", align 1
@.str.256 = private unnamed_addr constant [3 x i8] c"/f\00", align 1
@.str.257 = private unnamed_addr constant [5 x i8] c"/xml\00", align 1
@.str.258 = private unnamed_addr constant [25 x i8] c"failed to start schtasks\00", align 1
@__const.schtasks_task_name.label = private unnamed_addr constant %struct.strbuf { i64 0, i64 0, ptr @strbuf_slopbuf }, align 8
@.str.259 = private unnamed_addr constant [21 x i8] c"Git Maintenance (%s)\00", align 1

; Function Attrs: nounwind uwtable
define internal ptr @get_extra_config_parameters() #0 {
  %1 = alloca ptr, align 8
  %2 = alloca %struct.strbuf, align 8
  %3 = alloca i32, align 4
  %4 = alloca ptr, align 8
  call void @llvm.lifetime.start.p0(i64 24, ptr %2) #11
  call void @llvm.memcpy.p0.p0.i64(ptr align 8 %2, ptr align 8 @__const.get_extra_config_parameters.builder, i64 24, i1 false)
  %5 = load ptr, ptr @get_extra_config_parameters.result, align 8, !tbaa !11
  %6 = icmp ne ptr %5, null
  br i1 %6, label %7, label %9

7:                                                ; preds = %0
  %8 = load ptr, ptr @get_extra_config_parameters.result, align 8, !tbaa !11
  store ptr %8, ptr %1, align 8
  store i32 1, ptr %3, align 4
  br label %29

9:                                                ; preds = %0
  call void @llvm.lifetime.start.p0(i64 8, ptr %4) #11
  store ptr @extraconfig, ptr %4, align 8, !tbaa !8
  br label %10

10:                                               ; preds = %23, %9
  %11 = load ptr, ptr %4, align 8, !tbaa !8
  %12 = icmp ne ptr %11, null
  br i1 %12, label %13, label %17

13:                                               ; preds = %10
  %14 = load ptr, ptr %4, align 8, !tbaa !8
  %15 = load ptr, ptr %14, align 8, !tbaa !11
  %16 = icmp ne ptr %15, null
  br label %17

17:                                               ; preds = %13, %10
  %18 = phi i1 [ false, %10 ], [ %16, %13 ]
  br i1 %18, label %20, label %19

19:                                               ; preds = %17
  store i32 2, ptr %3, align 4
  call void @llvm.lifetime.end.p0(i64 8, ptr %4) #11
  br label %26

20:                                               ; preds = %17
  %21 = load ptr, ptr %4, align 8, !tbaa !8
  %22 = load ptr, ptr %21, align 8, !tbaa !11
  call void (ptr, ptr, ...) @strbuf_addf(ptr noundef %2, ptr noundef @.str.206, ptr noundef %22)
  br label %23

23:                                               ; preds = %20
  %24 = load ptr, ptr %4, align 8, !tbaa !8
  %25 = getelementptr inbounds nuw ptr, ptr %24, i32 1
  store ptr %25, ptr %4, align 8, !tbaa !8
  br label %10, !llvm.loop !217

26:                                               ; preds = %19
  %27 = call ptr @strbuf_detach(ptr noundef %2, ptr noundef null)
  store ptr %27, ptr @get_extra_config_parameters.result, align 8, !tbaa !11
  %28 = load ptr, ptr @get_extra_config_parameters.result, align 8, !tbaa !11
  store ptr %28, ptr %1, align 8
  store i32 1, ptr %3, align 4
  br label %29

29:                                               ; preds = %26, %7
  call void @llvm.lifetime.end.p0(i64 24, ptr %2) #11
  %30 = load ptr, ptr %1, align 8
  ret ptr %30
}

; Function Attrs: inlinehint nounwind uwtable
define internal ptr @xmks_tempfile(ptr noundef %0) #6 {
  %2 = alloca ptr, align 8
  store ptr %0, ptr %2, align 8, !tbaa !11
  %3 = load ptr, ptr %2, align 8, !tbaa !11
  %4 = call ptr @xmks_tempfile_m(ptr noundef %3, i32 noundef 384)
  ret ptr %4
}

; Function Attrs: nounwind uwtable
define internal i32 @get_random_minute() #0 {
  %1 = alloca i32, align 4
  %2 = call ptr @getenv(ptr noundef @.str.181) #11
  %3 = icmp ne ptr %2, null
  br i1 %3, label %4, label %5

4:                                                ; preds = %0
  store i32 13, ptr %1, align 4
  br label %8

5:                                                ; preds = %0
  %6 = call i32 @git_rand(i32 noundef 0)
  %7 = urem i32 %6, 60
  store i32 %7, ptr %1, align 4
  br label %8

8:                                                ; preds = %5, %4
  %9 = load i32, ptr %1, align 4
  ret i32 %9
}

; Function Attrs: nounwind uwtable
define internal ptr @schtasks_task_name(ptr noundef %0) #0 {
  %2 = alloca ptr, align 8
  %3 = alloca %struct.strbuf, align 8
  store ptr %0, ptr %2, align 8, !tbaa !11
  call void @llvm.lifetime.start.p0(i64 24, ptr %3) #11
  call void @llvm.memcpy.p0.p0.i64(ptr align 8 %3, ptr align 8 @__const.schtasks_task_name.label, i64 24, i1 false)
  %4 = load ptr, ptr %2, align 8, !tbaa !11
  call void (ptr, ptr, ...) @strbuf_addf(ptr noundef %3, ptr noundef @.str.259, ptr noundef %4)
  %5 = call ptr @strbuf_detach(ptr noundef %3, ptr noundef null)
  call void @llvm.lifetime.end.p0(i64 24, ptr %3) #11
  ret ptr %5
}

; Function Attrs: nounwind uwtable
define internal ptr @get_frequency(i32 noundef %0) #0 {
  %2 = alloca ptr, align 8
  %3 = alloca i32, align 4
  store i32 %0, ptr %3, align 4, !tbaa !4
  %4 = load i32, ptr %3, align 4, !tbaa !4
  switch i32 %4, label %8 [
    i32 3, label %5
    i32 2, label %6
    i32 1, label %7
  ]

5:                                                ; preds = %1
  store ptr @.str.115, ptr %2, align 8
  br label %10

6:                                                ; preds = %1
  store ptr @.str.116, ptr %2, align 8
  br label %10

7:                                                ; preds = %1
  store ptr @.str.117, ptr %2, align 8
  br label %10

8:                                                ; preds = %1
  %9 = load i32, ptr %3, align 4, !tbaa !4
  call void (ptr, i32, ptr, ...) @BUG_fl(ptr noundef @.str.118, i32 noundef 1783, ptr noundef @.str.222, i32 noundef %9) #12
  unreachable

10:                                               ; preds = %7, %6, %5
  %11 = load ptr, ptr %2, align 8
  ret ptr %11
}

; Function Attrs: nounwind uwtable
define internal i32 @schtasks_schedule_task(ptr noundef %0, i32 noundef %1) #0 {
  %3 = alloca ptr, align 8
  %4 = alloca i32, align 4
  %5 = alloca ptr, align 8
  %6 = alloca i32, align 4
  %7 = alloca %struct.child_process, align 8
  %8 = alloca ptr, align 8
  %9 = alloca ptr, align 8
  %10 = alloca ptr, align 8
  %11 = alloca ptr, align 8
  %12 = alloca %struct.strbuf, align 8
  %13 = alloca i32, align 4
  store ptr %0, ptr %3, align 8, !tbaa !11
  store i32 %1, ptr %4, align 4, !tbaa !4
  call void @llvm.lifetime.start.p0(i64 8, ptr %5) #11
  call void @llvm.lifetime.start.p0(i64 4, ptr %6) #11
  call void @llvm.lifetime.start.p0(i64 120, ptr %7) #11
  call void @llvm.memcpy.p0.p0.i64(ptr align 8 %7, ptr align 8 @__const.schtasks_schedule_task.child, i64 120, i1 false)
  call void @llvm.lifetime.start.p0(i64 8, ptr %8) #11
  call void @llvm.lifetime.start.p0(i64 8, ptr %9) #11
  call void @llvm.lifetime.start.p0(i64 8, ptr %10) #11
  %14 = load i32, ptr %4, align 4, !tbaa !4
  %15 = call ptr @get_frequency(i32 noundef %14)
  store ptr %15, ptr %10, align 8, !tbaa !11
  call void @llvm.lifetime.start.p0(i64 8, ptr %11) #11
  %16 = load ptr, ptr %10, align 8, !tbaa !11
  %17 = call ptr @schtasks_task_name(ptr noundef %16)
  store ptr %17, ptr %11, align 8, !tbaa !11
  call void @llvm.lifetime.start.p0(i64 24, ptr %12) #11
  call void @llvm.memcpy.p0.p0.i64(ptr align 8 %12, ptr align 8 @__const.schtasks_schedule_task.tfilename, i64 24, i1 false)
  call void @llvm.lifetime.start.p0(i64 4, ptr %13) #11
  %18 = call i32 @get_random_minute()
  store i32 %18, ptr %13, align 4, !tbaa !4
  %19 = call i32 @get_schedule_cmd(ptr noundef @.str.177, ptr noundef null, ptr noundef %5)
  %20 = load ptr, ptr @the_repository, align 8, !tbaa !13
  %21 = call ptr @repo_get_common_dir(ptr noundef %20)
  %22 = load ptr, ptr %10, align 8, !tbaa !11
  call void (ptr, ptr, ...) @strbuf_addf(ptr noundef %12, ptr noundef @.str.247, ptr noundef %21, ptr noundef %22)
  %23 = getelementptr inbounds nuw %struct.strbuf, ptr %12, i32 0, i32 2
  %24 = load ptr, ptr %23, align 8, !tbaa !102
  %25 = call ptr @xmks_tempfile(ptr noundef %24)
  store ptr %25, ptr %9, align 8, !tbaa !106
  call void @strbuf_release(ptr noundef %12)
  %26 = load ptr, ptr %9, align 8, !tbaa !106
  %27 = call ptr @fdopen_tempfile(ptr noundef %26, ptr noundef @.str.138)
  %28 = icmp ne ptr %27, null
  br i1 %28, label %31, label %29

29:                                               ; preds = %2
  %30 = call ptr @_(ptr noundef @.str.248)
  call void (ptr, ...) @die(ptr noundef %30) #12
  unreachable

31:                                               ; preds = %2
  store ptr @.str.249, ptr %8, align 8, !tbaa !11
  %32 = load ptr, ptr %8, align 8, !tbaa !11
  %33 = load ptr, ptr %9, align 8, !tbaa !106
  %34 = getelementptr inbounds nuw %struct.tempfile, ptr %33, i32 0, i32 2
  %35 = load volatile ptr, ptr %34, align 8, !tbaa !221
  %36 = call i32 @fputs(ptr noundef %32, ptr noundef %35)
  %37 = load i32, ptr %4, align 4, !tbaa !4
  switch i32 %37, label %56 [
    i32 3, label %38
    i32 2, label %44
    i32 1, label %50
  ]

38:                                               ; preds = %31
  %39 = load ptr, ptr %9, align 8, !tbaa !106
  %40 = getelementptr inbounds nuw %struct.tempfile, ptr %39, i32 0, i32 2
  %41 = load volatile ptr, ptr %40, align 8, !tbaa !221
  %42 = load i32, ptr %13, align 4, !tbaa !4
  %43 = call i32 (ptr, ptr, ...) @fprintf(ptr noundef %41, ptr noundef @.str.250, i32 noundef %42) #11
  br label %57

44:                                               ; preds = %31
  %45 = load ptr, ptr %9, align 8, !tbaa !106
  %46 = getelementptr inbounds nuw %struct.tempfile, ptr %45, i32 0, i32 2
  %47 = load volatile ptr, ptr %46, align 8, !tbaa !221
  %48 = load i32, ptr %13, align 4, !tbaa !4
  %49 = call i32 (ptr, ptr, ...) @fprintf(ptr noundef %47, ptr noundef @.str.251, i32 noundef %48) #11
  br label %57

50:                                               ; preds = %31
  %51 = load ptr, ptr %9, align 8, !tbaa !106
  %52 = getelementptr inbounds nuw %struct.tempfile, ptr %51, i32 0, i32 2
  %53 = load volatile ptr, ptr %52, align 8, !tbaa !221
  %54 = load i32, ptr %13, align 4, !tbaa !4
  %55 = call i32 (ptr, ptr, ...) @fprintf(ptr noundef %53, ptr noundef @.str.252, i32 noundef %54) #11
  br label %57

56:                                               ; preds = %31
  br label %57

57:                                               ; preds = %56, %50, %44, %38
  store ptr @.str.253, ptr %8, align 8, !tbaa !11
  %58 = load ptr, ptr %9, align 8, !tbaa !106
  %59 = getelementptr inbounds nuw %struct.tempfile, ptr %58, i32 0, i32 2
  %60 = load volatile ptr, ptr %59, align 8, !tbaa !221
  %61 = load ptr, ptr %8, align 8, !tbaa !11
  %62 = load ptr, ptr %3, align 8, !tbaa !11
  %63 = load ptr, ptr %3, align 8, !tbaa !11
  %64 = call ptr @get_extra_config_parameters()
  %65 = load ptr, ptr %10, align 8, !tbaa !11
  %66 = call i32 (ptr, ptr, ...) @fprintf(ptr noundef %60, ptr noundef %61, ptr noundef %62, ptr noundef %63, ptr noundef %64, ptr noundef %65) #11
  %67 = getelementptr inbounds nuw %struct.child_process, ptr %7, i32 0, i32 0
  %68 = load ptr, ptr %5, align 8, !tbaa !11
  call void @strvec_split(ptr noundef %67, ptr noundef %68)
  %69 = getelementptr inbounds nuw %struct.child_process, ptr %7, i32 0, i32 0
  %70 = load ptr, ptr %11, align 8, !tbaa !11
  %71 = load ptr, ptr %9, align 8, !tbaa !106
  %72 = call ptr @get_tempfile_path(ptr noundef %71)
  call void (ptr, ...) @strvec_pushl(ptr noundef %69, ptr noundef @.str.254, ptr noundef @.str.255, ptr noundef %70, ptr noundef @.str.256, ptr noundef @.str.257, ptr noundef %72, ptr noundef null)
  %73 = load ptr, ptr %9, align 8, !tbaa !106
  %74 = call i32 @close_tempfile_gently(ptr noundef %73)
  %75 = getelementptr inbounds nuw %struct.child_process, ptr %7, i32 0, i32 11
  %76 = load i16, ptr %75, align 8
  %77 = and i16 %76, -3
  %78 = or i16 %77, 2
  store i16 %78, ptr %75, align 8
  %79 = getelementptr inbounds nuw %struct.child_process, ptr %7, i32 0, i32 11
  %80 = load i16, ptr %79, align 8
  %81 = and i16 %80, -5
  %82 = or i16 %81, 4
  store i16 %82, ptr %79, align 8
  %83 = call i32 @start_command(ptr noundef %7)
  %84 = icmp ne i32 %83, 0
  br i1 %84, label %85, label %87

85:                                               ; preds = %57
  %86 = call ptr @_(ptr noundef @.str.258)
  call void (ptr, ...) @die(ptr noundef %86) #12
  unreachable

87:                                               ; preds = %57
  %88 = call i32 @finish_command(ptr noundef %7)
  store i32 %88, ptr %6, align 4, !tbaa !4
  %89 = call i32 @delete_tempfile(ptr noundef %9)
  %90 = load ptr, ptr %11, align 8, !tbaa !11
  call void @free(ptr noundef %90) #11
  %91 = load ptr, ptr %5, align 8, !tbaa !11
  call void @free(ptr noundef %91) #11
  %92 = load i32, ptr %6, align 4, !tbaa !4
  call void @llvm.lifetime.end.p0(i64 4, ptr %13) #11
  call void @llvm.lifetime.end.p0(i64 24, ptr %12) #11
  call void @llvm.lifetime.end.p0(i64 8, ptr %11) #11
  call void @llvm.lifetime.end.p0(i64 8, ptr %10) #11
  call void @llvm.lifetime.end.p0(i64 8, ptr %9) #11
  call void @llvm.lifetime.end.p0(i64 8, ptr %8) #11
  call void @llvm.lifetime.end.p0(i64 120, ptr %7) #11
  call void @llvm.lifetime.end.p0(i64 4, ptr %6) #11
  call void @llvm.lifetime.end.p0(i64 8, ptr %5) #11
  ret i32 %92
}