; Function Attrs: nounwind uwtable
define internal fastcc i32 @schtasks_schedule_task(ptr noundef %0, i32 noundef range(i32 1, 4) %1) unnamed_addr #0 {
switch.lookup:
  %2 = alloca %struct.strbuf, align 8
  %3 = alloca %struct.strbuf, align 8
  %4 = alloca ptr, align 8
  %5 = alloca %struct.child_process, align 8
  %6 = alloca ptr, align 8
  %7 = alloca %struct.strbuf, align 8
  call void @llvm.lifetime.start.p0(i64 8, ptr nonnull %4) #21
  call void @llvm.lifetime.start.p0(i64 120, ptr nonnull %5) #21
  call void @llvm.memcpy.p0.p0.i64(ptr noundef nonnull align 8 dereferenceable(120) %5, ptr noundef nonnull align 8 dereferenceable(120) @__const.schtasks_remove_task.child, i64 120, i1 false)
  call void @llvm.lifetime.start.p0(i64 8, ptr nonnull %6) #21
  %switch.tableidx = add nsw i32 %1, -1
  %8 = sext i32 %switch.tableidx to i64
  %switch.gep = getelementptr inbounds [3 x ptr], ptr @switch.table.schtasks_schedule_task, i64 0, i64 %8
  %switch.load = load ptr, ptr %switch.gep, align 8
  call void @llvm.lifetime.start.p0(i64 24, ptr nonnull %3) #21
  call void @llvm.memcpy.p0.p0.i64(ptr noundef nonnull align 8 dereferenceable(24) %3, ptr noundef nonnull align 8 dereferenceable(24) @__const.get_maintpath.sb, i64 24, i1 false)
  call void (ptr, ptr, ...) @strbuf_addf(ptr noundef nonnull %3, ptr noundef nonnull @.str.259, ptr noundef nonnull %switch.load) #21
  %9 = call ptr @strbuf_detach(ptr noundef nonnull %3, ptr noundef null) #21
  call void @llvm.lifetime.end.p0(i64 24, ptr nonnull %3) #21
  call void @llvm.lifetime.start.p0(i64 24, ptr nonnull %7) #21
  call void @llvm.memcpy.p0.p0.i64(ptr noundef nonnull align 8 dereferenceable(24) %7, ptr noundef nonnull align 8 dereferenceable(24) @__const.get_maintpath.sb, i64 24, i1 false)
  %10 = call ptr @getenv(ptr noundef nonnull @.str.181) #21
  %.not.i = icmp eq ptr %10, null
  br i1 %.not.i, label %11, label %get_random_minute.exit

11:                                               ; preds = %switch.lookup
  %12 = call i32 @git_rand(i32 noundef 0) #21
  %13 = urem i32 %12, 60
  br label %get_random_minute.exit

get_random_minute.exit:                           ; preds = %switch.lookup, %11
  %.0.i15 = phi i32 [ %13, %11 ], [ 13, %switch.lookup ]
  %14 = call fastcc i32 @get_schedule_cmd(ptr noundef nonnull @.str.177, ptr noundef null, ptr noundef nonnull %4)
  %15 = load ptr, ptr @the_repository, align 8, !tbaa !42
  %16 = call ptr @repo_get_common_dir(ptr noundef %15) #21
  call void (ptr, ptr, ...) @strbuf_addf(ptr noundef nonnull %7, ptr noundef nonnull @.str.247, ptr noundef %16, ptr noundef nonnull %switch.load) #21
  %17 = getelementptr inbounds nuw i8, ptr %7, i64 16
  %18 = load ptr, ptr %17, align 8, !tbaa !53
  %19 = call ptr @xmks_tempfile_m(ptr noundef %18, i32 noundef 384) #21
  store ptr %19, ptr %6, align 8, !tbaa !104
  call void @strbuf_release(ptr noundef nonnull %7) #21
  %20 = call ptr @fdopen_tempfile(ptr noundef %19, ptr noundef nonnull @.str.138) #21
  %.not = icmp eq ptr %20, null
  br i1 %.not, label %21, label %switch.lookup18

21:                                               ; preds = %get_random_minute.exit
  %22 = call fastcc ptr @_(ptr noundef nonnull @.str.248)
  call void (ptr, ...) @die(ptr noundef %22) #22
  unreachable

switch.lookup18:                                  ; preds = %get_random_minute.exit
  %23 = getelementptr inbounds nuw i8, ptr %19, i64 24
  %24 = load volatile ptr, ptr %23, align 8, !tbaa !176
  %25 = call i64 @fwrite(ptr nonnull @.str.249, i64 135, i64 1, ptr %24)
  %switch.tableidx19 = add nsw i32 %1, -1
  %26 = sext i32 %switch.tableidx19 to i64
  %switch.gep20 = getelementptr inbounds [3 x ptr], ptr @switch.table.schtasks_schedule_task.13, i64 0, i64 %26
  %switch.load21 = load ptr, ptr %switch.gep20, align 8
  %27 = load volatile ptr, ptr %23, align 8, !tbaa !176
  %28 = call i32 (ptr, ptr, ...) @fprintf(ptr noundef %27, ptr noundef nonnull %switch.load21, i32 noundef %.0.i15) #21
  %29 = load volatile ptr, ptr %23, align 8, !tbaa !176
  call void @llvm.lifetime.start.p0(i64 24, ptr nonnull %2) #21
  call void @llvm.memcpy.p0.p0.i64(ptr noundef nonnull align 8 dereferenceable(24) %2, ptr noundef nonnull align 8 dereferenceable(24) @__const.get_maintpath.sb, i64 24, i1 false)
  %30 = load ptr, ptr @get_extra_config_parameters.result, align 8, !tbaa !26
  %.not.i16 = icmp eq ptr %30, null
  br i1 %.not.i16, label %.preheader.i, label %get_extra_config_parameters.exit

.critedge.i:                                      ; preds = %.preheader.i
  %31 = call ptr @strbuf_detach(ptr noundef nonnull %2, ptr noundef null) #21
  store ptr %31, ptr @get_extra_config_parameters.result, align 8, !tbaa !26
  br label %get_extra_config_parameters.exit

.preheader.i:                                     ; preds = %switch.lookup18, %.preheader.i
  %32 = phi ptr [ %34, %.preheader.i ], [ @.str.207, %switch.lookup18 ]
  %.09.i = phi ptr [ %33, %.preheader.i ], [ @extraconfig, %switch.lookup18 ]
  call void (ptr, ptr, ...) @strbuf_addf(ptr noundef nonnull %2, ptr noundef nonnull @.str.206, ptr noundef nonnull %32) #21
  %33 = getelementptr inbounds nuw i8, ptr %.09.i, i64 8
  %34 = load ptr, ptr %33, align 8, !tbaa !26
  %.not8.i = icmp eq ptr %34, null
  br i1 %.not8.i, label %.critedge.i, label %.preheader.i, !llvm.loop !172

get_extra_config_parameters.exit:                 ; preds = %switch.lookup18, %.critedge.i
  %.05.i = phi ptr [ %31, %.critedge.i ], [ %30, %switch.lookup18 ]
  call void @llvm.lifetime.end.p0(i64 24, ptr nonnull %2) #21
  %35 = call i32 (ptr, ptr, ...) @fprintf(ptr noundef %29, ptr noundef nonnull @.str.253, ptr noundef %0, ptr noundef %0, ptr noundef %.05.i, ptr noundef nonnull %switch.load) #21
  %36 = load ptr, ptr %4, align 8, !tbaa !26
  call void @strvec_split(ptr noundef nonnull %5, ptr noundef %36) #21
  %37 = call ptr @get_tempfile_path(ptr noundef %19) #21
  call void (ptr, ...) @strvec_pushl(ptr noundef nonnull %5, ptr noundef nonnull @.str.254, ptr noundef nonnull @.str.255, ptr noundef %9, ptr noundef nonnull @.str.256, ptr noundef nonnull @.str.257, ptr noundef %37, ptr noundef null) #21
  %38 = call i32 @close_tempfile_gently(ptr noundef %19) #21
  %39 = getelementptr inbounds nuw i8, ptr %5, i64 104
  %40 = load i16, ptr %39, align 8
  %41 = or i16 %40, 6
  store i16 %41, ptr %39, align 8
  %42 = call i32 @start_command(ptr noundef nonnull %5) #21
  %.not14 = icmp eq i32 %42, 0
  br i1 %.not14, label %45, label %43

43:                                               ; preds = %get_extra_config_parameters.exit
  %44 = call fastcc ptr @_(ptr noundef nonnull @.str.258)
  call void (ptr, ...) @die(ptr noundef %44) #22
  unreachable

45:                                               ; preds = %get_extra_config_parameters.exit
  %46 = call i32 @finish_command(ptr noundef nonnull %5) #21
  %47 = call i32 @delete_tempfile(ptr noundef nonnull %6) #21
  call void @free(ptr noundef %9) #21
  %48 = load ptr, ptr %4, align 8, !tbaa !26
  call void @free(ptr noundef %48) #21
  call void @llvm.lifetime.end.p0(i64 24, ptr nonnull %7) #21
  call void @llvm.lifetime.end.p0(i64 8, ptr nonnull %6) #21
  call void @llvm.lifetime.end.p0(i64 120, ptr nonnull %5) #21
  call void @llvm.lifetime.end.p0(i64 8, ptr nonnull %4) #21
  ret i32 %46
}